target datalayout = "e-m:e-p270:32:32-p271:32:32-p272:64:64-i64:64-i128:128-f80:128-n8:16:32:64-S128"
target triple = "x86_64-pc-linux-gnu"

%struct.AngleSet = type { [360 x %struct.AngleSetArc], i32, i32, double }
%struct.AngleSetArc = type { double, double, i32 }

; Function Attrs: mustprogress nounwind uwtable
define hidden noundef double @_ZN8AngleSet8_overlapEdd(ptr noundef nonnull align 8 dereferenceable(8656) %0, double noundef %1, double noundef %2) #8 align 2 {
  %4 = alloca ptr, align 8
  %5 = alloca double, align 8
  %6 = alloca double, align 8
  %7 = alloca double, align 8
  %8 = alloca i32, align 4
  store ptr %0, ptr %4, align 8, !tbaa !24
  store double %1, ptr %5, align 8, !tbaa !10
  store double %2, ptr %6, align 8, !tbaa !10
  %9 = load ptr, ptr %4, align 8
  call void @llvm.lifetime.start.p0(i64 8, ptr %7) #3
  store double 0.000000e+00, ptr %7, align 8, !tbaa !10
  call void @llvm.lifetime.start.p0(i64 4, ptr %8) #3
  %10 = getelementptr inbounds nuw %struct.AngleSet, ptr %9, i32 0, i32 1
  %11 = load i32, ptr %10, align 8, !tbaa !32
  store i32 %11, ptr %8, align 4, !tbaa !8
  br label %12

12:                                               ; preds = %108, %24, %3
  %13 = load i32, ptr %8, align 4, !tbaa !8
  %14 = icmp sge i32 %13, 0
  br i1 %14, label %15, label %115

15:                                               ; preds = %12
  %16 = load double, ptr %5, align 8, !tbaa !10
  %17 = getelementptr inbounds nuw %struct.AngleSet, ptr %9, i32 0, i32 0
  %18 = load i32, ptr %8, align 4, !tbaa !8
  %19 = sext i32 %18 to i64
  %20 = getelementptr inbounds [360 x %struct.AngleSetArc], ptr %17, i64 0, i64 %19
  %21 = getelementptr inbounds nuw %struct.AngleSetArc, ptr %20, i32 0, i32 1
  %22 = load double, ptr %21, align 8, !tbaa !30
  %23 = fcmp ogt double %16, %22
  br i1 %23, label %24, label %31

24:                                               ; preds = %15
  %25 = getelementptr inbounds nuw %struct.AngleSet, ptr %9, i32 0, i32 0
  %26 = load i32, ptr %8, align 4, !tbaa !8
  %27 = sext i32 %26 to i64
  %28 = getelementptr inbounds [360 x %struct.AngleSetArc], ptr %25, i64 0, i64 %27
  %29 = getelementptr inbounds nuw %struct.AngleSetArc, ptr %28, i32 0, i32 2
  %30 = load i32, ptr %29, align 8, !tbaa !31
  store i32 %30, ptr %8, align 4, !tbaa !8
  br label %12, !llvm.loop !41

31:                                               ; preds = %15
  %32 = load double, ptr %6, align 8, !tbaa !10
  %33 = getelementptr inbounds nuw %struct.AngleSet, ptr %9, i32 0, i32 0
  %34 = load i32, ptr %8, align 4, !tbaa !8
  %35 = sext i32 %34 to i64
  %36 = getelementptr inbounds [360 x %struct.AngleSetArc], ptr %33, i64 0, i64 %35
  %37 = getelementptr inbounds nuw %struct.AngleSetArc, ptr %36, i32 0, i32 0
  %38 = load double, ptr %37, align 8, !tbaa !28
  %39 = fcmp olt double %32, %38
  br i1 %39, label %40, label %41

40:                                               ; preds = %31
  br label %115

41:                                               ; preds = %31
  br label %42

42:                                               ; preds = %41
  %43 = load double, ptr %5, align 8, !tbaa !10
  %44 = getelementptr inbounds nuw %struct.AngleSet, ptr %9, i32 0, i32 0
  %45 = load i32, ptr %8, align 4, !tbaa !8
  %46 = sext i32 %45 to i64
  %47 = getelementptr inbounds [360 x %struct.AngleSetArc], ptr %44, i64 0, i64 %46
  %48 = getelementptr inbounds nuw %struct.AngleSetArc, ptr %47, i32 0, i32 0
  %49 = load double, ptr %48, align 8, !tbaa !28
  %50 = fcmp olt double %43, %49
  br i1 %50, label %51, label %76

51:                                               ; preds = %42
  %52 = load double, ptr %6, align 8, !tbaa !10
  %53 = getelementptr inbounds nuw %struct.AngleSet, ptr %9, i32 0, i32 0
  %54 = load i32, ptr %8, align 4, !tbaa !8
  %55 = sext i32 %54 to i64
  %56 = getelementptr inbounds [360 x %struct.AngleSetArc], ptr %53, i64 0, i64 %55
  %57 = getelementptr inbounds nuw %struct.AngleSetArc, ptr %56, i32 0, i32 1
  %58 = load double, ptr %57, align 8, !tbaa !30
  %59 = fcmp ogt double %52, %58
  br i1 %59, label %60, label %76

60:                                               ; preds = %51
  %61 = getelementptr inbounds nuw %struct.AngleSet, ptr %9, i32 0, i32 0
  %62 = load i32, ptr %8, align 4, !tbaa !8
  %63 = sext i32 %62 to i64
  %64 = getelementptr inbounds [360 x %struct.AngleSetArc], ptr %61, i64 0, i64 %63
  %65 = getelementptr inbounds nuw %struct.AngleSetArc, ptr %64, i32 0, i32 1
  %66 = load double, ptr %65, align 8, !tbaa !30
  %67 = getelementptr inbounds nuw %struct.AngleSet, ptr %9, i32 0, i32 0
  %68 = load i32, ptr %8, align 4, !tbaa !8
  %69 = sext i32 %68 to i64
  %70 = getelementptr inbounds [360 x %struct.AngleSetArc], ptr %67, i64 0, i64 %69
  %71 = getelementptr inbounds nuw %struct.AngleSetArc, ptr %70, i32 0, i32 0
  %72 = load double, ptr %71, align 8, !tbaa !28
  %73 = fsub double %66, %72
  %74 = load double, ptr %7, align 8, !tbaa !10
  %75 = fadd double %74, %73
  store double %75, ptr %7, align 8, !tbaa !10
  br label %108

76:                                               ; preds = %51, %42
  %77 = load double, ptr %5, align 8, !tbaa !10
  %78 = getelementptr inbounds nuw %struct.AngleSet, ptr %9, i32 0, i32 0
  %79 = load i32, ptr %8, align 4, !tbaa !8
  %80 = sext i32 %79 to i64
  %81 = getelementptr inbounds [360 x %struct.AngleSetArc], ptr %78, i64 0, i64 %80
  %82 = getelementptr inbounds nuw %struct.AngleSetArc, ptr %81, i32 0, i32 0
  %83 = load double, ptr %82, align 8, !tbaa !28
  %84 = fcmp olt double %77, %83
  br i1 %84, label %85, label %96

85:                                               ; preds = %76
  %86 = load double, ptr %6, align 8, !tbaa !10
  %87 = getelementptr inbounds nuw %struct.AngleSet, ptr %9, i32 0, i32 0
  %88 = load i32, ptr %8, align 4, !tbaa !8
  %89 = sext i32 %88 to i64
  %90 = getelementptr inbounds [360 x %struct.AngleSetArc], ptr %87, i64 0, i64 %89
  %91 = getelementptr inbounds nuw %struct.AngleSetArc, ptr %90, i32 0, i32 0
  %92 = load double, ptr %91, align 8, !tbaa !28
  %93 = fsub double %86, %92
  %94 = load double, ptr %7, align 8, !tbaa !10
  %95 = fadd double %94, %93
  store double %95, ptr %7, align 8, !tbaa !10
  br label %107

96:                                               ; preds = %76
  %97 = getelementptr inbounds nuw %struct.AngleSet, ptr %9, i32 0, i32 0
  %98 = load i32, ptr %8, align 4, !tbaa !8
  %99 = sext i32 %98 to i64
  %100 = getelementptr inbounds [360 x %struct.AngleSetArc], ptr %97, i64 0, i64 %99
  %101 = getelementptr inbounds nuw %struct.AngleSetArc, ptr %100, i32 0, i32 1
  %102 = load double, ptr %101, align 8, !tbaa !30
  %103 = load double, ptr %5, align 8, !tbaa !10
  %104 = fsub double %102, %103
  %105 = load double, ptr %7, align 8, !tbaa !10
  %106 = fadd double %105, %104
  store double %106, ptr %7, align 8, !tbaa !10
  br label %107

107:                                              ; preds = %96, %85
  br label %108

108:                                              ; preds = %107, %60
  %109 = getelementptr inbounds nuw %struct.AngleSet, ptr %9, i32 0, i32 0
  %110 = load i32, ptr %8, align 4, !tbaa !8
  %111 = sext i32 %110 to i64
  %112 = getelementptr inbounds [360 x %struct.AngleSetArc], ptr %109, i64 0, i64 %111
  %113 = getelementptr inbounds nuw %struct.AngleSetArc, ptr %112, i32 0, i32 2
  %114 = load i32, ptr %113, align 8, !tbaa !31
  store i32 %114, ptr %8, align 4, !tbaa !8
  br label %12, !llvm.loop !41

115:                                              ; preds = %40, %12
  %116 = load double, ptr %7, align 8, !tbaa !10
  call void @llvm.lifetime.end.p0(i64 4, ptr %8) #3
  call void @llvm.lifetime.end.p0(i64 8, ptr %7) #3
  ret double %116
}