; Function Attrs: mustprogress nofree norecurse nosync nounwind willreturn memory(argmem: read) uwtable
define hidden noundef double @_ZN8AngleSet8_overlapEdd(ptr noundef nonnull readonly align 8 captures(none) dereferenceable(8656) %0, double noundef %1, double noundef %2) local_unnamed_addr #11 align 2 {
  %4 = getelementptr inbounds nuw i8, ptr %0, i64 8640
  %.03336 = load i32, ptr %4, align 8, !tbaa !15
  %5 = icmp sgt i32 %.03336, -1
  br i1 %5, label %.lr.ph, label %.loopexit

.lr.ph:                                           ; preds = %3, %.outer
  %.03338 = phi i32 [ %.033, %.outer ], [ %.03336, %3 ]
  %.023.ph37 = phi double [ %.1, %.outer ], [ 0.000000e+00, %3 ]
  br label %6

6:                                                ; preds = %.lr.ph, %12
  %.034 = phi i32 [ %.03338, %.lr.ph ], [ %.0, %12 ]
  %7 = zext nneg i32 %.034 to i64
  %8 = getelementptr inbounds nuw [360 x %struct.AngleSetArc], ptr %0, i64 0, i64 %7
  %9 = getelementptr inbounds nuw i8, ptr %8, i64 8
  %10 = load double, ptr %9, align 8, !tbaa !25
  %11 = fcmp ogt double %1, %10
  br i1 %11, label %12, label %15

12:                                               ; preds = %6
  %13 = getelementptr inbounds nuw i8, ptr %8, i64 16
  %.0 = load i32, ptr %13, align 8, !tbaa !15
  %14 = icmp sgt i32 %.0, -1
  br i1 %14, label %6, label %.loopexit, !llvm.loop !36

15:                                               ; preds = %6
  %16 = load double, ptr %8, align 8, !tbaa !23
  %17 = fcmp olt double %2, %16
  br i1 %17, label %.loopexit, label %18

18:                                               ; preds = %15
  %19 = fcmp olt double %1, %16
  %20 = fcmp ogt double %2, %10
  %or.cond = and i1 %20, %19
  br i1 %or.cond, label %21, label %23

21:                                               ; preds = %18
  %22 = fsub double %10, %16
  br label %.outer

23:                                               ; preds = %18
  br i1 %19, label %24, label %26

24:                                               ; preds = %23
  %25 = fsub double %2, %16
  br label %.outer

26:                                               ; preds = %23
  %27 = fsub double %10, %1
  br label %.outer

.outer:                                           ; preds = %24, %26, %21
  %.pn = phi double [ %22, %21 ], [ %25, %24 ], [ %27, %26 ]
  %.1 = fadd double %.023.ph37, %.pn
  %28 = getelementptr inbounds nuw i8, ptr %8, i64 16
  %.033 = load i32, ptr %28, align 8, !tbaa !15
  %29 = icmp sgt i32 %.033, -1
  br i1 %29, label %.lr.ph, label %.loopexit, !llvm.loop !36

.loopexit:                                        ; preds = %15, %.outer, %12, %3
  %.023.ph32 = phi double [ 0.000000e+00, %3 ], [ %.023.ph37, %12 ], [ %.1, %.outer ], [ %.023.ph37, %15 ]
  ret double %.023.ph32
}